; Function Attrs: mustprogress uwtable
define hidden void @_ZN2cv3hal12cpu_baseline7recip8sEPKamPamiiPKd(ptr nocapture noundef readonly %0, i64 noundef %1, ptr nocapture noundef writeonly %2, i64 noundef %3, i32 noundef %4, i32 noundef %5, ptr nocapture noundef readonly %6) local_unnamed_addr #3 personality ptr @__gxx_personality_v0 {
  %8 = alloca %"class.cv::utils::trace::details::Region", align 8
  call void @_ZN2cv5utils5trace7details6RegionC1ERKNS3_21LocationStaticStorageE(ptr noundef nonnull align 8 dereferenceable(12) %8, ptr noundef nonnull align 8 dereferenceable(32) @_ZZN2cv3hal12cpu_baseline7recip8sEPKamPamiiPKdE26__cv_trace_location_fn1927)
  %.val = load double, ptr %6, align 8
  %9 = fptrunc double %.val to float
  %.not18.i.i = icmp ne i32 %5, 0
  %10 = icmp sgt i32 %4, 0
  %or.cond.i.i = and i1 %10, %.not18.i.i
  br i1 %or.cond.i.i, label %.preheader.us.preheader.i.i, label %_ZN2cv3hal12cpu_baselineL10recip_loopIaNS_12hal_baseline5v_regIaLi16EEEEEvPKT_mPS6_miiPKd.exit

.preheader.us.preheader.i.i:                      ; preds = %7
  %wide.trip.count.i.i = zext nneg i32 %4 to i64
  br label %.preheader.us.i.i

.preheader.us.i.i:                                ; preds = %._crit_edge.us.i.i, %.preheader.us.preheader.i.i
  %.in.i.i = phi i32 [ %24, %._crit_edge.us.i.i ], [ %5, %.preheader.us.preheader.i.i ]
  %.01420.us.i.i = phi ptr [ %25, %._crit_edge.us.i.i ], [ %0, %.preheader.us.preheader.i.i ]
  %.01619.us.i.i = phi ptr [ %26, %._crit_edge.us.i.i ], [ %2, %.preheader.us.preheader.i.i ]
  br label %11

11:                                               ; preds = %_ZN2cv3hal12cpu_baseline8op_recipIafNS_12hal_baseline5v_regIaLi16EEEE1rEaPKf.exit.us.i.i, %.preheader.us.i.i
  %indvars.iv.i.i = phi i64 [ 0, %.preheader.us.i.i ], [ %indvars.iv.next.i.i, %_ZN2cv3hal12cpu_baseline8op_recipIafNS_12hal_baseline5v_regIaLi16EEEE1rEaPKf.exit.us.i.i ]
  %12 = getelementptr inbounds i8, ptr %.01420.us.i.i, i64 %indvars.iv.i.i
  %13 = load i8, ptr %12, align 1
  %.not.i.us.i.i = icmp eq i8 %13, 0
  br i1 %.not.i.us.i.i, label %_ZN2cv3hal12cpu_baseline8op_recipIafNS_12hal_baseline5v_regIaLi16EEEE1rEaPKf.exit.us.i.i, label %14

14:                                               ; preds = %11
  %15 = sitofp i8 %13 to float
  %16 = fdiv float %9, %15
  %17 = insertelement <4 x float> poison, float %16, i64 0
  %18 = call noundef i32 @llvm.x86.sse.cvtss2si(<4 x float> %17)
  %19 = call i32 @llvm.smax.i32(i32 %18, i32 -128)
  %20 = call i32 @llvm.smin.i32(i32 %19, i32 127)
  %21 = trunc nsw i32 %20 to i8
  br label %_ZN2cv3hal12cpu_baseline8op_recipIafNS_12hal_baseline5v_regIaLi16EEEE1rEaPKf.exit.us.i.i

_ZN2cv3hal12cpu_baseline8op_recipIafNS_12hal_baseline5v_regIaLi16EEEE1rEaPKf.exit.us.i.i: ; preds = %14, %11
  %22 = phi i8 [ %21, %14 ], [ 0, %11 ]
  %23 = getelementptr inbounds i8, ptr %.01619.us.i.i, i64 %indvars.iv.i.i
  store i8 %22, ptr %23, align 1
  %indvars.iv.next.i.i = add nuw nsw i64 %indvars.iv.i.i, 1
  %exitcond.not.i.i = icmp eq i64 %indvars.iv.next.i.i, %wide.trip.count.i.i
  br i1 %exitcond.not.i.i, label %._crit_edge.us.i.i, label %11, !llvm.loop !237

._crit_edge.us.i.i:                               ; preds = %_ZN2cv3hal12cpu_baseline8op_recipIafNS_12hal_baseline5v_regIaLi16EEEE1rEaPKf.exit.us.i.i
  %24 = add nsw i32 %.in.i.i, -1
  %25 = getelementptr inbounds i8, ptr %.01420.us.i.i, i64 %1
  %26 = getelementptr inbounds i8, ptr %.01619.us.i.i, i64 %3
  %.not.us.i.i = icmp eq i32 %24, 0
  br i1 %.not.us.i.i, label %_ZN2cv3hal12cpu_baselineL10recip_loopIaNS_12hal_baseline5v_regIaLi16EEEEEvPKT_mPS6_miiPKd.exit, label %.preheader.us.i.i, !llvm.loop !238

_ZN2cv3hal12cpu_baselineL10recip_loopIaNS_12hal_baseline5v_regIaLi16EEEEEvPKT_mPS6_miiPKd.exit: ; preds = %._crit_edge.us.i.i, %7
  %27 = getelementptr inbounds i8, ptr %8, i64 8
  %28 = load i32, ptr %27, align 8
  %.not.i = icmp eq i32 %28, 0
  br i1 %.not.i, label %_ZN2cv5utils5trace7details6RegionD2Ev.exit, label %29

29:                                               ; preds = %_ZN2cv3hal12cpu_baselineL10recip_loopIaNS_12hal_baseline5v_regIaLi16EEEEEvPKT_mPS6_miiPKd.exit
  invoke void @_ZN2cv5utils5trace7details6Region7destroyEv(ptr noundef nonnull align 8 dereferenceable(12) %8)
          to label %_ZN2cv5utils5trace7details6RegionD2Ev.exit unwind label %30

30:                                               ; preds = %29
  %31 = landingpad { ptr, i32 }
          catch ptr null
  %32 = extractvalue { ptr, i32 } %31, 0
  call void @__clang_call_terminate(ptr %32) #11
  unreachable

_ZN2cv5utils5trace7details6RegionD2Ev.exit:       ; preds = %_ZN2cv3hal12cpu_baselineL10recip_loopIaNS_12hal_baseline5v_regIaLi16EEEEEvPKT_mPS6_miiPKd.exit, %29
  ret void
}